; ModuleID = 'source-C-CXX/18/1503.c'
source_filename = "source-C-CXX/18/1503.c"
target datalayout = "e-m:e-p270:32:32-p271:32:32-p272:64:64-i64:64-f80:128-n8:16:32:64-S128"
target triple = "x86_64-pc-linux-gnu"

@.str = private unnamed_addr constant [4 x i8] c"%s \00", align 1

; Function Attrs: nounwind sspstrong uwtable
define dso_local void @main() local_unnamed_addr #0 {
  %1 = alloca [500 x i8], align 16
  %2 = alloca [30 x i8], align 16
  %3 = alloca [30 x i8], align 16
  %4 = alloca [30 x i8], align 16
  %5 = getelementptr inbounds [500 x i8], [500 x i8]* %1, i64 0, i64 0
  call void @llvm.lifetime.start.p0i8(i64 500, i8* nonnull %5) #7
  call void @llvm.memset.p0i8.i64(i8* noundef nonnull align 16 dereferenceable(500) %5, i8 0, i64 500, i1 false)
  %6 = getelementptr inbounds [30 x i8], [30 x i8]* %2, i64 0, i64 0
  call void @llvm.lifetime.start.p0i8(i64 30, i8* nonnull %6) #7
  call void @llvm.memset.p0i8.i64(i8* noundef nonnull align 16 dereferenceable(30) %6, i8 0, i64 30, i1 false)
  %7 = getelementptr inbounds [30 x i8], [30 x i8]* %3, i64 0, i64 0
  call void @llvm.lifetime.start.p0i8(i64 30, i8* nonnull %7) #7
  call void @llvm.memset.p0i8.i64(i8* noundef nonnull align 16 dereferenceable(30) %7, i8 0, i64 30, i1 false)
  %8 = getelementptr inbounds [30 x i8], [30 x i8]* %4, i64 0, i64 0
  call void @llvm.lifetime.start.p0i8(i64 30, i8* nonnull %8) #7
  call void @llvm.memset.p0i8.i64(i8* noundef nonnull align 16 dereferenceable(30) %8, i8 0, i64 30, i1 false)
  %9 = call i32 (i8*, ...) bitcast (i32 (...)* @gets to i32 (i8*, ...)*)(i8* nonnull %5) #7
  %10 = call i32 (i8*, ...) bitcast (i32 (...)* @gets to i32 (i8*, ...)*)(i8* nonnull %6) #7
  %11 = call i32 (i8*, ...) bitcast (i32 (...)* @gets to i32 (i8*, ...)*)(i8* nonnull %7) #7
  %12 = call i64 @strlen(i8* noundef nonnull %5) #8
  %13 = trunc i64 %12 to i32
  %14 = icmp slt i32 %13, 0
  br i1 %14, label %62, label %15

15:                                               ; preds = %0
  %16 = add i64 %12, 1
  %17 = and i64 %16, 4294967295
  br label %18

18:                                               ; preds = %15, %58
  %19 = phi i64 [ 0, %15 ], [ %60, %58 ]
  %20 = phi i32 [ 0, %15 ], [ %59, %58 ]
  %21 = getelementptr inbounds [500 x i8], [500 x i8]* %1, i64 0, i64 %19
  %22 = load i8, i8* %21, align 1, !tbaa !5
  switch i8 %22, label %23 [
    i8 32, label %27
    i8 0, label %27
  ]

23:                                               ; preds = %18
  %24 = sext i32 %20 to i64
  %25 = getelementptr inbounds [30 x i8], [30 x i8]* %4, i64 0, i64 %24
  store i8 %22, i8* %25, align 1, !tbaa !5
  %26 = add nsw i32 %20, 1
  br label %27

27:                                               ; preds = %18, %18, %23
  %28 = phi i32 [ %26, %23 ], [ %20, %18 ], [ %20, %18 ]
  %29 = icmp eq i8 %22, 32
  br i1 %29, label %30, label %42

30:                                               ; preds = %27
  %31 = sext i32 %28 to i64
  %32 = getelementptr inbounds [30 x i8], [30 x i8]* %4, i64 0, i64 %31
  store i8 0, i8* %32, align 1, !tbaa !5
  %33 = call i32 @strcmp(i8* noundef nonnull %8, i8* noundef nonnull %6) #8
  %34 = icmp eq i32 %33, 0
  br i1 %34, label %35, label %37

35:                                               ; preds = %30
  %36 = call i32 (i8*, ...) @printf(i8* nonnull dereferenceable(1) getelementptr inbounds ([4 x i8], [4 x i8]* @.str, i64 0, i64 0), i8* nonnull %7)
  br label %37

37:                                               ; preds = %35, %30
  %38 = call i32 @strcmp(i8* noundef nonnull %8, i8* noundef nonnull %6) #8
  %39 = icmp eq i32 %38, 0
  br i1 %39, label %42, label %40

40:                                               ; preds = %37
  %41 = call i32 (i8*, ...) @printf(i8* nonnull dereferenceable(1) getelementptr inbounds ([4 x i8], [4 x i8]* @.str, i64 0, i64 0), i8* nonnull %8)
  br label %42

42:                                               ; preds = %37, %40, %27
  %43 = phi i32 [ %28, %27 ], [ 0, %40 ], [ 0, %37 ]
  %44 = load i8, i8* %21, align 1, !tbaa !5
  %45 = icmp eq i8 %44, 0
  br i1 %45, label %46, label %58

46:                                               ; preds = %42
  %47 = sext i32 %43 to i64
  %48 = getelementptr inbounds [30 x i8], [30 x i8]* %4, i64 0, i64 %47
  store i8 0, i8* %48, align 1, !tbaa !5
  %49 = call i32 @strcmp(i8* noundef nonnull %8, i8* noundef nonnull %6) #8
  %50 = icmp eq i32 %49, 0
  br i1 %50, label %51, label %53

51:                                               ; preds = %46
  %52 = call i32 @puts(i8* nonnull %7)
  br label %53

53:                                               ; preds = %51, %46
  %54 = call i32 @strcmp(i8* noundef nonnull %8, i8* noundef nonnull %6) #8
  %55 = icmp eq i32 %54, 0
  br i1 %55, label %58, label %56

56:                                               ; preds = %53
  %57 = call i32 @puts(i8* nonnull %8)
  br label %58

58:                                               ; preds = %53, %56, %42
  %59 = phi i32 [ %43, %42 ], [ 0, %56 ], [ 0, %53 ]
  %60 = add nuw nsw i64 %19, 1
  %61 = icmp eq i64 %60, %17
  br i1 %61, label %62, label %18, !llvm.loop !8

62:                                               ; preds = %58, %0
  call void @llvm.lifetime.end.p0i8(i64 30, i8* nonnull %8) #7
  call void @llvm.lifetime.end.p0i8(i64 30, i8* nonnull %7) #7
  call void @llvm.lifetime.end.p0i8(i64 30, i8* nonnull %6) #7
  call void @llvm.lifetime.end.p0i8(i64 500, i8* nonnull %5) #7
  ret void
}

; Function Attrs: argmemonly mustprogress nofree nosync nounwind willreturn
declare void @llvm.lifetime.start.p0i8(i64 immarg, i8* nocapture) #1

; Function Attrs: argmemonly mustprogress nofree nounwind willreturn writeonly
declare void @llvm.memset.p0i8.i64(i8* nocapture writeonly, i8, i64, i1 immarg) #2

declare i32 @gets(...) local_unnamed_addr #3

; Function Attrs: argmemonly mustprogress nofree nounwind readonly willreturn
declare i64 @strlen(i8* nocapture) local_unnamed_addr #4

; Function Attrs: argmemonly mustprogress nofree nounwind readonly willreturn
declare i32 @strcmp(i8* nocapture, i8* nocapture) local_unnamed_addr #4

; Function Attrs: nofree nounwind
declare noundef i32 @printf(i8* nocapture noundef readonly, ...) local_unnamed_addr #5

; Function Attrs: argmemonly mustprogress nofree nosync nounwind willreturn
declare void @llvm.lifetime.end.p0i8(i64 immarg, i8* nocapture) #1

; Function Attrs: nofree nounwind
declare noundef i32 @puts(i8* nocapture noundef readonly) local_unnamed_addr #6


!llvm.module.flags = !{!0, !1, !2, !3}
!llvm.ident = !{!4}

!0 = !{i32 1, !"wchar_size", i32 4}
!1 = !{i32 7, !"PIC Level", i32 2}
!2 = !{i32 7, !"PIE Level", i32 2}
!3 = !{i32 7, !"uwtable", i32 1}
!4 = !{!"clang version 13.0.0"}
!5 = !{!6, !6, i64 0}
!6 = !{!"omnipotent char", !7, i64 0}
!7 = !{!"Simple C/C++ TBAA"}
!8 = distinct !{!8, !9}
!9 = !{!"llvm.loop.mustprogress"}
